target datalayout = "e-m:e-p270:32:32-p271:32:32-p272:64:64-i64:64-i128:128-f80:128-n8:16:32:64-S128"
target triple = "x86_64-pc-linux-gnu"

%struct.quic_conn_id_st = type { i8, [20 x i8] }
%union.bio_addr_st = type { %struct.sockaddr_in6, [84 x i8] }
%struct.sockaddr_in6 = type { i16, i16, i32, %struct.in6_addr, i32 }
%struct.in6_addr = type { %union.anon }
%union.anon = type { [4 x i32] }
%struct.OSSL_TIME = type { i64 }
%struct.quic_channel_st = type { ptr, %struct.anon, %struct.anon.0, ptr, ptr, ptr, ptr, ptr, ptr, ptr, i64, %union.bio_addr_st, ptr, ptr, ptr, %struct.quic_txfc_st, %struct.quic_rxfc_st, [3 x %struct.quic_rxfc_st], %struct.quic_rxfc_st, %struct.quic_rxfc_st, %struct.quic_stream_map_st, %struct.ossl_statm_st, ptr, ptr, ptr, ptr, ptr, ptr, ptr, ptr, [3 x ptr], [3 x ptr], %struct.quic_conn_id_st, %struct.quic_conn_id_st, %struct.quic_conn_id_st, %struct.quic_conn_id_st, %struct.quic_conn_id_st, %struct.quic_conn_id_st, i64, i64, i64, i64, i64, i64, i64, i64, i64, i64, i8, i16, ptr, i64, i64, i64, i64, i64, i64, i64, i64, i64, i64, i64, i64, i64, %struct.quic_terminate_cause_st, %struct.OSSL_TIME, %struct.OSSL_TIME, %struct.OSSL_TIME, %struct.OSSL_TIME, %struct.OSSL_TIME, i64, i64, i64, ptr, ptr, i64, ptr }
%struct.anon = type { ptr, ptr }
%struct.anon.0 = type { ptr, ptr }
%struct.quic_txfc_st = type { ptr, i64, i64, i8 }
%struct.quic_rxfc_st = type { i64, i64, i64, i64, i64, i64, i64, %struct.OSSL_TIME, ptr, ptr, ptr, i8, i8, i8, i8 }
%struct.quic_stream_map_st = type { ptr, %struct.quic_stream_list_node_st, %struct.quic_stream_list_node_st, %struct.quic_stream_list_node_st, i64, i64, i64, i64, i64, ptr, ptr, ptr, ptr, ptr, i32 }
%struct.quic_stream_list_node_st = type { ptr, ptr }
%struct.ossl_statm_st = type { %struct.OSSL_TIME, %struct.OSSL_TIME, %struct.OSSL_TIME, %struct.OSSL_TIME, i8 }
%struct.quic_terminate_cause_st = type { i64, i64, ptr, i64, i8 }

; Function Attrs: nounwind uwtable
define internal ptr @ch_get_local_stream_next_ordinal_ptr(ptr noundef %0, i32 noundef %1) #0 {
  %3 = alloca ptr, align 8
  %4 = alloca i32, align 4
  store ptr %0, ptr %3, align 8, !tbaa !3
  store i32 %1, ptr %4, align 4, !tbaa !80
  %5 = load i32, ptr %4, align 4, !tbaa !80
  %6 = icmp ne i32 %5, 0
  br i1 %6, label %7, label %10

7:                                                ; preds = %2
  %8 = load ptr, ptr %3, align 8, !tbaa !3
  %9 = getelementptr inbounds nuw %struct.quic_channel_st, ptr %8, i32 0, i32 59
  br label %13

10:                                               ; preds = %2
  %11 = load ptr, ptr %3, align 8, !tbaa !3
  %12 = getelementptr inbounds nuw %struct.quic_channel_st, ptr %11, i32 0, i32 58
  br label %13

13:                                               ; preds = %10, %7
  %14 = phi ptr [ %9, %7 ], [ %12, %10 ]
  ret ptr %14
}

; Function Attrs: nounwind uwtable
define ptr @ossl_quic_channel_new_stream_local(ptr noundef %0, i32 noundef %1) #0 {
  %3 = alloca ptr, align 8
  %4 = alloca ptr, align 8
  %5 = alloca i32, align 4
  %6 = alloca ptr, align 8
  %7 = alloca i32, align 4
  %8 = alloca i64, align 8
  %9 = alloca ptr, align 8
  %10 = alloca i32, align 4
  store ptr %0, ptr %4, align 8, !tbaa !3
  store i32 %1, ptr %5, align 4, !tbaa !80
  call void @llvm.lifetime.start.p0(i64 8, ptr %6) #9
  call void @llvm.lifetime.start.p0(i64 4, ptr %7) #9
  call void @llvm.lifetime.start.p0(i64 8, ptr %8) #9
  call void @llvm.lifetime.start.p0(i64 8, ptr %9) #9
  %11 = load ptr, ptr %4, align 8, !tbaa !3
  %12 = getelementptr inbounds nuw %struct.quic_channel_st, ptr %11, i32 0, i32 72
  %13 = load i64, ptr %12, align 8
  %14 = lshr i64 %13, 25
  %15 = and i64 %14, 1
  %16 = trunc i64 %15 to i32
  %17 = icmp ne i32 %16, 0
  %18 = select i1 %17, i32 1, i32 0
  store i32 %18, ptr %7, align 4, !tbaa !80
  %19 = load ptr, ptr %4, align 8, !tbaa !3
  %20 = load i32, ptr %5, align 4, !tbaa !80
  %21 = call ptr @ch_get_local_stream_next_ordinal_ptr(ptr noundef %19, i32 noundef %20)
  store ptr %21, ptr %9, align 8, !tbaa !253
  %22 = load i32, ptr %5, align 4, !tbaa !80
  %23 = icmp ne i32 %22, 0
  br i1 %23, label %24, label %27

24:                                               ; preds = %2
  %25 = load i32, ptr %7, align 4, !tbaa !80
  %26 = or i32 %25, 2
  store i32 %26, ptr %7, align 4, !tbaa !80
  br label %30

27:                                               ; preds = %2
  %28 = load i32, ptr %7, align 4, !tbaa !80
  %29 = or i32 %28, 0
  store i32 %29, ptr %7, align 4, !tbaa !80
  br label %30

30:                                               ; preds = %27, %24
  %31 = load ptr, ptr %9, align 8, !tbaa !253
  %32 = load i64, ptr %31, align 8, !tbaa !47
  %33 = icmp uge i64 %32, 4611686018427387904
  br i1 %33, label %34, label %35

34:                                               ; preds = %30
  store ptr null, ptr %3, align 8
  store i32 1, ptr %10, align 4
  br label %68

35:                                               ; preds = %30
  %36 = load ptr, ptr %9, align 8, !tbaa !253
  %37 = load i64, ptr %36, align 8, !tbaa !47
  %38 = shl i64 %37, 2
  %39 = load i32, ptr %7, align 4, !tbaa !80
  %40 = sext i32 %39 to i64
  %41 = or i64 %38, %40
  store i64 %41, ptr %8, align 8, !tbaa !47
  %42 = load ptr, ptr %4, align 8, !tbaa !3
  %43 = getelementptr inbounds nuw %struct.quic_channel_st, ptr %42, i32 0, i32 20
  %44 = load i64, ptr %8, align 8, !tbaa !47
  %45 = load i32, ptr %7, align 4, !tbaa !80
  %46 = call ptr @ossl_quic_stream_map_alloc(ptr noundef %43, i64 noundef %44, i32 noundef %45)
  store ptr %46, ptr %6, align 8, !tbaa !255
  %47 = icmp eq ptr %46, null
  br i1 %47, label %48, label %49

48:                                               ; preds = %35
  store ptr null, ptr %3, align 8
  store i32 1, ptr %10, align 4
  br label %68

49:                                               ; preds = %35
  %50 = load ptr, ptr %4, align 8, !tbaa !3
  %51 = load ptr, ptr %6, align 8, !tbaa !255
  %52 = load i32, ptr %5, align 4, !tbaa !80
  %53 = icmp ne i32 %52, 0
  %54 = xor i1 %53, true
  %55 = zext i1 %54 to i32
  %56 = call i32 @ch_init_new_stream(ptr noundef %50, ptr noundef %51, i32 noundef 1, i32 noundef %55)
  %57 = icmp ne i32 %56, 0
  br i1 %57, label %59, label %58

58:                                               ; preds = %49
  br label %64

59:                                               ; preds = %49
  %60 = load ptr, ptr %9, align 8, !tbaa !253
  %61 = load i64, ptr %60, align 8, !tbaa !47
  %62 = add i64 %61, 1
  store i64 %62, ptr %60, align 8, !tbaa !47
  %63 = load ptr, ptr %6, align 8, !tbaa !255
  store ptr %63, ptr %3, align 8
  store i32 1, ptr %10, align 4
  br label %68

64:                                               ; preds = %58
  %65 = load ptr, ptr %4, align 8, !tbaa !3
  %66 = getelementptr inbounds nuw %struct.quic_channel_st, ptr %65, i32 0, i32 20
  %67 = load ptr, ptr %6, align 8, !tbaa !255
  call void @ossl_quic_stream_map_release(ptr noundef %66, ptr noundef %67)
  store ptr null, ptr %3, align 8
  store i32 1, ptr %10, align 4
  br label %68

68:                                               ; preds = %64, %59, %48, %34
  call void @llvm.lifetime.end.p0(i64 8, ptr %9) #9
  call void @llvm.lifetime.end.p0(i64 8, ptr %8) #9
  call void @llvm.lifetime.end.p0(i64 4, ptr %7) #9
  call void @llvm.lifetime.end.p0(i64 8, ptr %6) #9
  %69 = load ptr, ptr %3, align 8
  ret ptr %69
}