; Function Attrs: nounwind uwtable
define ptr @ossl_quic_channel_new_stream_local(ptr noundef %0, i32 noundef %1) local_unnamed_addr #0 {
  %.not.i = icmp eq i32 %1, 0
  %.v.i = select i1 %.not.i, i64 1424, i64 1432
  %3 = getelementptr inbounds nuw i8, ptr %0, i64 %.v.i
  %4 = load i64, ptr %3, align 8, !tbaa !71
  %5 = icmp ugt i64 %4, 4611686018427387903
  br i1 %5, label %26, label %6

6:                                                ; preds = %2
  %7 = getelementptr inbounds nuw i8, ptr %0, i64 1568
  %8 = load i64, ptr %7, align 8
  %9 = trunc i64 %8 to i32
  %10 = lshr i32 %9, 25
  %11 = and i32 %10, 1
  %12 = or disjoint i32 %11, 2
  %.019 = select i1 %.not.i, i32 %11, i32 %12
  %13 = shl nuw i64 %4, 2
  %14 = zext nneg i32 %.019 to i64
  %15 = or disjoint i64 %13, %14
  %16 = getelementptr inbounds nuw i8, ptr %0, i64 848
  %17 = tail call ptr @ossl_quic_stream_map_alloc(ptr noundef nonnull %16, i64 noundef %15, i32 noundef %.019) #15
  %18 = icmp eq ptr %17, null
  br i1 %18, label %26, label %19

19:                                               ; preds = %6
  %20 = zext i1 %.not.i to i32
  %21 = tail call fastcc i32 @ch_init_new_stream(ptr noundef nonnull %0, ptr noundef %17, i32 noundef 1, i32 noundef %20)
  %.not22 = icmp eq i32 %21, 0
  br i1 %.not22, label %25, label %22

22:                                               ; preds = %19
  %23 = load i64, ptr %3, align 8, !tbaa !71
  %24 = add i64 %23, 1
  store i64 %24, ptr %3, align 8, !tbaa !71
  br label %26

25:                                               ; preds = %19
  tail call void @ossl_quic_stream_map_release(ptr noundef nonnull %16, ptr noundef nonnull %17) #15
  br label %26

26:                                               ; preds = %6, %2, %25, %22
  %.0 = phi ptr [ %17, %22 ], [ null, %25 ], [ null, %2 ], [ null, %6 ]
  ret ptr %.0
}